(lp0
ccopy_reg
_reconstructor
p1
(cStructs
Case
p2
c__builtin__
object
p3
Ntp4
Rp5
(dp6
S'facts'
p7
(lp8
VRSA(PK)
p9
aVRC4(cipher)
p10
aVHMAC-MD5(mac)
p11
aV16(key)
p12
asS'casename'
p13
S'Case 1'
p14
sS'description'
p15
V
p16
sbag1
(g2
g3
Ntp17
Rp18
(dp19
g7
(lp20
VAES(cipher)
p21
aV16(key)
p22
aVCBC(mode)
p23
aVHMAC-SHA1(mac)
p24
aVRSA(PK)
p25
asg13
S'Case 2'
p26
sg15
g16
sbag1
(g2
g3
Ntp27
Rp28
(dp29
g7
(lp30
VRC4(cipher)
p31
aVDH-anon(PK)
p32
aV16(key)
p33
aVHMAC-MD5(mac)
p34
asg13
S'Case 3'
p35
sg15
g16
sbag1
(g2
g3
Ntp36
Rp37
(dp38
g7
(lp39
VDHE-RSA(PK)
p40
aVAES(cipher)
p41
aV32(key)
p42
aVCBC(mode)
p43
aVHMAC-SHA256(mac)
p44
asg13
S'Case 4'
p45
sg15
g16
sbag1
(g2
g3
Ntp46
Rp47
(dp48
g7
(lp49
VRSA(PK)
p50
aVRC4(cipher)
p51
aVHMAC-SHA512(mac)
p52
aV16(key)
p53
asg13
S'Case 5'
p54
sg15
g16
sbag1
(g2
g3
Ntp55
Rp56
(dp57
g7
(lp58
VRSA(PK)
p59
aVRC4(cipher)
p60
aVHMAC-MD5(mac)
p61
aV16(key)
p62
aVCompression(com)
p63
asg13
S'Case 6'
p64
sg15
g16
sba.