(lp0
ccopy_reg
_reconstructor
p1
(cStructs
Category
p2
c__builtin__
object
p3
Ntp4
Rp5
(dp6
S'name'
p7
VIV
p8
sS'description'
p9
Vinitiate vector in bytes
p10
sbag1
(g2
g3
Ntp11
Rp12
(dp13
g7
Vbs
p14
sg9
Vblock size in bytes
p15
sbag1
(g2
g3
Ntp16
Rp17
(dp18
g7
Vcipher
p19
sg9
Vsymmetric encryption aglorithm
p20
sbag1
(g2
g3
Ntp21
Rp22
(dp23
g7
Vkey
p24
sg9
Vkey length in bytes
p25
sbag1
(g2
g3
Ntp26
Rp27
(dp28
g7
Vmac
p29
sg9
Vmessage authentication code algorithm
p30
sbag1
(g2
g3
Ntp31
Rp32
(dp33
g7
Vmac-len
p34
sg9
Vmessage digest length in bytes
p35
sbag1
(g2
g3
Ntp36
Rp37
(dp38
g7
Vk-len
p39
sg9
Vmac key length in bytes
p40
sbag1
(g2
g3
Ntp41
Rp42
(dp43
g7
VPK
p44
sg9
Vkey exchange algorithm scheme
p45
sbag1
(g2
g3
Ntp46
Rp47
(dp48
g7
Vmode
p49
sg9
Vmode of operation
p50
sbag1
(g2
g3
Ntp51
Rp52
(dp53
g7
Vcom
p54
sg9
Vbit compression before encryption
p55
sba.