(lp0
ccopy_reg
_reconstructor
p1
(cStructs
EvaluationRule
p2
c__builtin__
object
p3
Ntp4
Rp5
(dp6
S'security_attribute'
p7
Vavailability
p8
sS'elements'
p9
(lp10
VRC4(cipher)
p11
aV IMPLY 
p12
asS'influence'
p13
V1
p14
sbag1
(g2
g3
Ntp15
Rp16
(dp17
g7
Vavailability
p18
sg9
(lp19
V3DES(cipher)
p20
aV IMPLY 
p21
asg13
V2
p22
sbag1
(g2
g3
Ntp23
Rp24
(dp25
g7
Vavailability
p26
sg9
(lp27
VAES(cipher)
p28
aV IMPLY 
p29
asg13
V3
p30
sbag1
(g2
g3
Ntp31
Rp32
(dp33
g7
Vconfidentiality
p34
sg9
(lp35
VRC4(cipher)
p36
aV IMPLY 
p37
asg13
V1
p38
sbag1
(g2
g3
Ntp39
Rp40
(dp41
g7
Vconfidentiality
p42
sg9
(lp43
V3DES(cipher)
p44
aV IMPLY 
p45
asg13
V2
p46
sbag1
(g2
g3
Ntp47
Rp48
(dp49
g7
Vconfidentiality
p50
sg9
(lp51
VAES(cipher)
p52
aV IMPLY 
p53
asg13
V3
p54
sbag1
(g2
g3
Ntp55
Rp56
(dp57
g7
Vconfidentiality
p58
sg9
(lp59
V8(bs)
p60
aV IMPLY 
p61
asg13
V1
p62
sbag1
(g2
g3
Ntp63
Rp64
(dp65
g7
Vconfidentiality
p66
sg9
(lp67
V16(bs)
p68
aV IMPLY 
p69
asg13
V2
p70
sbag1
(g2
g3
Ntp71
Rp72
(dp73
g7
Vconfidentiality
p74
sg9
(lp75
V8(IV)
p76
aV IMPLY 
p77
asg13
V1
p78
sbag1
(g2
g3
Ntp79
Rp80
(dp81
g7
Vconfidentiality
p82
sg9
(lp83
V16(IV)
p84
aV IMPLY 
p85
asg13
V2
p86
sbag1
(g2
g3
Ntp87
Rp88
(dp89
g7
Vconfidentiality
p90
sg9
(lp91
V16(key)
p92
aV IMPLY 
p93
asg13
V1
p94
sbag1
(g2
g3
Ntp95
Rp96
(dp97
g7
Vconfidentiality
p98
sg9
(lp99
V24(key)
p100
aV IMPLY 
p101
asg13
V2
p102
sbag1
(g2
g3
Ntp103
Rp104
(dp105
g7
Vconfidentiality
p106
sg9
(lp107
V32(key)
p108
aV IMPLY 
p109
asg13
V3
p110
sbag1
(g2
g3
Ntp111
Rp112
(dp113
g7
Vavailability
p114
sg9
(lp115
V16(key)
p116
aV IMPLY 
p117
asg13
V1
p118
sbag1
(g2
g3
Ntp119
Rp120
(dp121
g7
Vavailability
p122
sg9
(lp123
V24(key)
p124
aV IMPLY 
p125
asg13
V2
p126
sbag1
(g2
g3
Ntp127
Rp128
(dp129
g7
Vavailability
p130
sg9
(lp131
V32(key)
p132
aV IMPLY 
p133
asg13
V3
p134
sbag1
(g2
g3
Ntp135
Rp136
(dp137
g7
Vintegrity
p138
sg9
(lp139
VHMAC-MD5(mac)
p140
aV IMPLY 
p141
asg13
V1
p142
sbag1
(g2
g3
Ntp143
Rp144
(dp145
g7
Vintegrity
p146
sg9
(lp147
VHMAC-SHA1(mac)
p148
aV IMPLY 
p149
asg13
V2
p150
sbag1
(g2
g3
Ntp151
Rp152
(dp153
g7
Vintegrity
p154
sg9
(lp155
VHMAC-SHA256(mac)
p156
aV IMPLY 
p157
asg13
V3
p158
sbag1
(g2
g3
Ntp159
Rp160
(dp161
g7
Vavailability
p162
sg9
(lp163
VHMAC-MD5(mac)
p164
aV IMPLY 
p165
asg13
V1
p166
sbag1
(g2
g3
Ntp167
Rp168
(dp169
g7
Vavailability
p170
sg9
(lp171
VHMAC-SHA1(mac)
p172
aV IMPLY 
p173
asg13
V2
p174
sbag1
(g2
g3
Ntp175
Rp176
(dp177
g7
Vavailability
p178
sg9
(lp179
VHMAC-SHA256(mac)
p180
aV IMPLY 
p181
asg13
V3
p182
sbag1
(g2
g3
Ntp183
Rp184
(dp185
g7
Vintegrity
p186
sg9
(lp187
V16(mac-len)
p188
aV IMPLY 
p189
asg13
V1
p190
sbag1
(g2
g3
Ntp191
Rp192
(dp193
g7
Vintegrity
p194
sg9
(lp195
V20(mac-len)
p196
aV IMPLY 
p197
asg13
V2
p198
sbag1
(g2
g3
Ntp199
Rp200
(dp201
g7
Vintegrity
p202
sg9
(lp203
V32(mac-len)
p204
aV IMPLY 
p205
asg13
V3
p206
sbag1
(g2
g3
Ntp207
Rp208
(dp209
g7
Vavailability
p210
sg9
(lp211
V16(mac-len)
p212
aV IMPLY 
p213
asg13
V1
p214
sbag1
(g2
g3
Ntp215
Rp216
(dp217
g7
Vavailability
p218
sg9
(lp219
V20(mac-len)
p220
aV IMPLY 
p221
asg13
V2
p222
sbag1
(g2
g3
Ntp223
Rp224
(dp225
g7
Vavailability
p226
sg9
(lp227
V32(mac-len)
p228
aV IMPLY 
p229
asg13
V3
p230
sbag1
(g2
g3
Ntp231
Rp232
(dp233
g7
Vintegrity
p234
sg9
(lp235
V16(k-len)
p236
aV IMPLY 
p237
asg13
V1
p238
sbag1
(g2
g3
Ntp239
Rp240
(dp241
g7
Vintegrity
p242
sg9
(lp243
V20(k-len)
p244
aV IMPLY 
p245
asg13
V2
p246
sbag1
(g2
g3
Ntp247
Rp248
(dp249
g7
Vintegrity
p250
sg9
(lp251
V32(k-len)
p252
aV IMPLY 
p253
asg13
V3
p254
sbag1
(g2
g3
Ntp255
Rp256
(dp257
g7
Vavailability
p258
sg9
(lp259
V16(k-len)
p260
aV IMPLY 
p261
asg13
V1
p262
sbag1
(g2
g3
Ntp263
Rp264
(dp265
g7
Vavailability
p266
sg9
(lp267
V20(k-len)
p268
aV IMPLY 
p269
asg13
V2
p270
sbag1
(g2
g3
Ntp271
Rp272
(dp273
g7
Vavailability
p274
sg9
(lp275
V32(k-len)
p276
aV IMPLY 
p277
asg13
V3
p278
sbag1
(g2
g3
Ntp279
Rp280
(dp281
g7
Vauthorisation
p282
sg9
(lp283
VRSA(PK)
p284
aV IMPLY 
p285
asg13
V1
p286
sbag1
(g2
g3
Ntp287
Rp288
(dp289
g7
Vauthorisation
p290
sg9
(lp291
VDH-DSS(PK)
p292
aV IMPLY 
p293
asg13
V2
p294
sbag1
(g2
g3
Ntp295
Rp296
(dp297
g7
Vauthorisation
p298
sg9
(lp299
VDH-RSA(PK)
p300
aV IMPLY 
p301
asg13
V2
p302
sbag1
(g2
g3
Ntp303
Rp304
(dp305
g7
Vauthorisation
p306
sg9
(lp307
VDHE-DSS(PK)
p308
aV IMPLY 
p309
asg13
V3
p310
sbag1
(g2
g3
Ntp311
Rp312
(dp313
g7
Vauthorisation
p314
sg9
(lp315
VDHE-RSA(PK)
p316
aV IMPLY 
p317
asg13
V3
p318
sbag1
(g2
g3
Ntp319
Rp320
(dp321
g7
Vavailability
p322
sg9
(lp323
VCompression(com)
p324
aV AND 
p325
aVRC4(cipher)
p326
aV IMPLY 
p327
asg13
V4
p328
sba.