(lp0
ccopy_reg
_reconstructor
p1
(cStructs
Fact
p2
c__builtin__
object
p3
Ntp4
Rp5
(dp6
S'category'
p7
Vcipher
p8
sS'name'
p9
S'f1'
p10
sS'value'
p11
VRC4
p12
sS'description'
p13
V
p14
sbag1
(g2
g3
Ntp15
Rp16
(dp17
g7
Vcipher
p18
sg9
S'f2'
p19
sg11
V3DES
p20
sg13
g14
sbag1
(g2
g3
Ntp21
Rp22
(dp23
g7
Vcipher
p24
sg9
S'f3'
p25
sg11
VAES
p26
sg13
g14
sbag1
(g2
g3
Ntp27
Rp28
(dp29
g7
Vbs
p30
sg9
S'f1'
p31
sg11
V8
p32
sg13
g14
sbag1
(g2
g3
Ntp33
Rp34
(dp35
g7
Vbs
p36
sg9
S'f2'
p37
sg11
V16
p38
sg13
g14
sbag1
(g2
g3
Ntp39
Rp40
(dp41
g7
VIV
p42
sg9
S'f1'
p43
sg11
V8
p44
sg13
g14
sbag1
(g2
g3
Ntp45
Rp46
(dp47
g7
VIV
p48
sg9
S'f2'
p49
sg11
V16
p50
sg13
g14
sbag1
(g2
g3
Ntp51
Rp52
(dp53
g7
Vkey
p54
sg9
S'f1'
p55
sg11
V16
p56
sg13
g14
sbag1
(g2
g3
Ntp57
Rp58
(dp59
g7
Vkey
p60
sg9
S'f2'
p61
sg11
V24
p62
sg13
g14
sbag1
(g2
g3
Ntp63
Rp64
(dp65
g7
Vkey
p66
sg9
S'f3'
p67
sg11
V32
p68
sg13
g14
sbag1
(g2
g3
Ntp69
Rp70
(dp71
g7
Vmac
p72
sg9
S'f1'
p73
sg11
VHMAC-MD5
p74
sg13
g14
sbag1
(g2
g3
Ntp75
Rp76
(dp77
g7
Vmac
p78
sg9
S'f2'
p79
sg11
VHMAC-SHA1
p80
sg13
g14
sbag1
(g2
g3
Ntp81
Rp82
(dp83
g7
Vmac
p84
sg9
S'f3'
p85
sg11
VHMAC-SHA256
p86
sg13
g14
sbag1
(g2
g3
Ntp87
Rp88
(dp89
g7
Vmac-len
p90
sg9
S'f1'
p91
sg11
V16
p92
sg13
g14
sbag1
(g2
g3
Ntp93
Rp94
(dp95
g7
Vmac-len
p96
sg9
S'f2'
p97
sg11
V20
p98
sg13
g14
sbag1
(g2
g3
Ntp99
Rp100
(dp101
g7
Vmac-len
p102
sg9
S'f3'
p103
sg11
V32
p104
sg13
g14
sbag1
(g2
g3
Ntp105
Rp106
(dp107
g7
Vk-len
p108
sg9
S'f1'
p109
sg11
V16
p110
sg13
g14
sbag1
(g2
g3
Ntp111
Rp112
(dp113
g7
Vk-len
p114
sg9
S'f2'
p115
sg11
V20
p116
sg13
g14
sbag1
(g2
g3
Ntp117
Rp118
(dp119
g7
Vk-len
p120
sg9
S'f3'
p121
sg11
V32
p122
sg13
g14
sbag1
(g2
g3
Ntp123
Rp124
(dp125
g7
VPK
p126
sg9
S'f1'
p127
sg11
VRSA
p128
sg13
g14
sbag1
(g2
g3
Ntp129
Rp130
(dp131
g7
VPK
p132
sg9
S'f2'
p133
sg11
VDH-DSS
p134
sg13
g14
sbag1
(g2
g3
Ntp135
Rp136
(dp137
g7
VPK
p138
sg9
S'f3'
p139
sg11
VDH-RSA
p140
sg13
g14
sbag1
(g2
g3
Ntp141
Rp142
(dp143
g7
VPK
p144
sg9
S'f4'
p145
sg11
VDHE-DSS
p146
sg13
g14
sbag1
(g2
g3
Ntp147
Rp148
(dp149
g7
VPK
p150
sg9
S'f5'
p151
sg11
VDHE-RSA
p152
sg13
g14
sbag1
(g2
g3
Ntp153
Rp154
(dp155
g7
VPK
p156
sg9
S'f6'
p157
sg11
VDH-anon
p158
sg13
g14
sbag1
(g2
g3
Ntp159
Rp160
(dp161
g7
Vmode
p162
sg9
S'f1'
p163
sg11
VCBC
p164
sg13
g14
sbag1
(g2
g3
Ntp165
Rp166
(dp167
g7
Vcom
p168
sg9
S'f1'
p169
sg11
VCompression
p170
sg13
g14
sbag1
(g2
g3
Ntp171
Rp172
(dp173
g7
Vcipher
p174
sg9
Vf
p175
sg11
Vgeneral
p176
sg13
g14
sbag1
(g2
g3
Ntp177
Rp178
(dp179
g7
Vbs
p180
sg9
Vf
p181
sg11
Vgeneral
p182
sg13
g14
sbag1
(g2
g3
Ntp183
Rp184
(dp185
g7
VIV
p186
sg9
Vf
p187
sg11
Vgeneral
p188
sg13
g14
sbag1
(g2
g3
Ntp189
Rp190
(dp191
g7
Vkey
p192
sg9
Vf
p193
sg11
Vgeneral
p194
sg13
g14
sbag1
(g2
g3
Ntp195
Rp196
(dp197
g7
Vmac
p198
sg9
Vf
p199
sg11
Vgeneral
p200
sg13
g14
sbag1
(g2
g3
Ntp201
Rp202
(dp203
g7
Vmac-len
p204
sg9
Vf
p205
sg11
Vgeneral
p206
sg13
g14
sbag1
(g2
g3
Ntp207
Rp208
(dp209
g7
Vk-len
p210
sg9
Vf
p211
sg11
Vgeneral
p212
sg13
g14
sbag1
(g2
g3
Ntp213
Rp214
(dp215
g7
VPK
p216
sg9
Vf
p217
sg11
Vgeneral
p218
sg13
g14
sbag1
(g2
g3
Ntp219
Rp220
(dp221
g7
Vmode
p222
sg9
Vf
p223
sg11
Vgeneral
p224
sg13
g14
sbag1
(g2
g3
Ntp225
Rp226
(dp227
g7
Vcom
p228
sg9
Vf
p229
sg11
Vgeneral
p230
sg13
g14
sbag1
(g2
g3
Ntp231
Rp232
(dp233
g7
Vkey
p234
sg9
S'f4'
p235
sg11
Vkey4
p236
sg13
Vunknown
p237
sbag1
(g2
g3
Ntp238
Rp239
(dp240
g7
Vmac
p241
sg9
S'f4'
p242
sg11
VHMAC-SHA512
p243
sg13
Vadditional
p244
sba.