(lp0
ccopy_reg
_reconstructor
p1
(cStructs
FactsOrder
p2
c__builtin__
object
p3
Ntp4
Rp5
(dp6
S'security_attribute'
p7
Vconfidentiality
p8
sS'elements'
p9
(lp10
VAES(cipher)
p11
aV GREATER 
p12
aV3DES(cipher)
p13
aV GREATER 
p14
aVRC4(cipher)
p15
asbag1
(g2
g3
Ntp16
Rp17
(dp18
g7
Vavailability
p19
sg9
(lp20
VRC4(cipher)
p21
aV GREATER 
p22
aV3DES(cipher)
p23
aV GREATER 
p24
aVAES(cipher)
p25
asbag1
(g2
g3
Ntp26
Rp27
(dp28
g7
Vconfidentiality
p29
sg9
(lp30
V16(bs)
p31
aV GREATER 
p32
aV8(bs)
p33
asbag1
(g2
g3
Ntp34
Rp35
(dp36
g7
Vconfidentiality
p37
sg9
(lp38
V16(IV)
p39
aV GREATER 
p40
aV8(IV)
p41
asbag1
(g2
g3
Ntp42
Rp43
(dp44
g7
Vconfidentiality
p45
sg9
(lp46
V32(key)
p47
aV GREATER 
p48
aV24(key)
p49
aV GREATER 
p50
aV16(key)
p51
asbag1
(g2
g3
Ntp52
Rp53
(dp54
g7
Vavailability
p55
sg9
(lp56
V16(key)
p57
aV GREATER 
p58
aV24(key)
p59
aV GREATER 
p60
aV32(key)
p61
asbag1
(g2
g3
Ntp62
Rp63
(dp64
g7
Vintegrity
p65
sg9
(lp66
VHMAC-SHA256(mac)
p67
aV GREATER 
p68
aVHMAC-SHA1(mac)
p69
aV GREATER 
p70
aVHMAC-MD5(mac)
p71
asbag1
(g2
g3
Ntp72
Rp73
(dp74
g7
Vavailability
p75
sg9
(lp76
VHMAC-MD5(mac)
p77
aV GREATER 
p78
aVHMAC-SHA1(mac)
p79
aV GREATER 
p80
aVHMAC-SHA256(mac)
p81
asbag1
(g2
g3
Ntp82
Rp83
(dp84
g7
Vintegrity
p85
sg9
(lp86
V32(mac-len)
p87
aV GREATER 
p88
aV20(mac-len)
p89
aV GREATER 
p90
aV16(mac-len)
p91
asbag1
(g2
g3
Ntp92
Rp93
(dp94
g7
Vavailability
p95
sg9
(lp96
V16(mac-len)
p97
aV GREATER 
p98
aV20(mac-len)
p99
aV GREATER 
p100
aV32(mac-len)
p101
asbag1
(g2
g3
Ntp102
Rp103
(dp104
g7
Vintegrity
p105
sg9
(lp106
V32(k-len)
p107
aV GREATER 
p108
aV20(k-len)
p109
aV GREATER 
p110
aV16(k-len)
p111
asbag1
(g2
g3
Ntp112
Rp113
(dp114
g7
Vavailability
p115
sg9
(lp116
V16(k-len)
p117
aV GREATER 
p118
aV20(k-len)
p119
aV GREATER 
p120
aV32(k-len)
p121
asbag1
(g2
g3
Ntp122
Rp123
(dp124
g7
Vauthorisation
p125
sg9
(lp126
VDH-DSS(PK)
p127
aV GREATER 
p128
aVRSA(PK)
p129
asbag1
(g2
g3
Ntp130
Rp131
(dp132
g7
Vauthorisation
p133
sg9
(lp134
VDH-RSA(PK)
p135
aV GREATER 
p136
aVRSA(PK)
p137
asbag1
(g2
g3
Ntp138
Rp139
(dp140
g7
Vauthorisation
p141
sg9
(lp142
VDHE-DSS(PK)
p143
aV GREATER 
p144
aVDH-DSS(PK)
p145
asbag1
(g2
g3
Ntp146
Rp147
(dp148
g7
Vauthorisation
p149
sg9
(lp150
VDHE-RSA(PK)
p151
aV GREATER 
p152
aVDH-DSS(PK)
p153
asbag1
(g2
g3
Ntp154
Rp155
(dp156
g7
Vauthorisation
p157
sg9
(lp158
VDHE-DSS(PK)
p159
aV GREATER 
p160
aVDH-RSA(PK)
p161
asbag1
(g2
g3
Ntp162
Rp163
(dp164
g7
Vauthorisation
p165
sg9
(lp166
VDHE-RSA(PK)
p167
aV GREATER 
p168
aVDH-RSA(PK)
p169
asbag1
(g2
g3
Ntp170
Rp171
(dp172
g7
Vavailability
p173
sg9
(lp174
VRSA(PK)
p175
aV GREATER 
p176
aVDH-DSS(PK)
p177
asbag1
(g2
g3
Ntp178
Rp179
(dp180
g7
Vavailability
p181
sg9
(lp182
VRSA(PK)
p183
aV GREATER 
p184
aVDH-RSA(PK)
p185
asbag1
(g2
g3
Ntp186
Rp187
(dp188
g7
Vavailability
p189
sg9
(lp190
VDH-DSS(PK)
p191
aV GREATER 
p192
aVDHE-DSS(PK)
p193
asbag1
(g2
g3
Ntp194
Rp195
(dp196
g7
Vavailability
p197
sg9
(lp198
VDH-DSS(PK)
p199
aV GREATER 
p200
aVDHE-RSA(PK)
p201
asbag1
(g2
g3
Ntp202
Rp203
(dp204
g7
Vavailability
p205
sg9
(lp206
VDH-RSA(PK)
p207
aV GREATER 
p208
aVDHE-DSS(PK)
p209
asbag1
(g2
g3
Ntp210
Rp211
(dp212
g7
Vavailability
p213
sg9
(lp214
VDH-RSA(PK)
p215
aV GREATER 
p216
aVDHE-RSA(PK)
p217
asbag1
(g2
g3
Ntp218
Rp219
(dp220
g7
Vintegrity
p221
sg9
(lp222
VHMAC-SHA512(mac)
p223
aV GREATER 
p224
aVHMAC-SHA256(mac)
p225
asbag1
(g2
g3
Ntp226
Rp227
(dp228
g7
Vavailability
p229
sg9
(lp230
VHMAC-SHA256(mac)
p231
aV GREATER 
p232
aVHMAC-SHA512(mac)
p233
asba.