(lp0
ccopy_reg
_reconstructor
p1
(cStructs
Rule
p2
c__builtin__
object
p3
Ntp4
Rp5
(dp6
S'elements'
p7
(lp8
VRC4(cipher)
p9
aV OR 
p10
aV3DES(cipher)
p11
aV OR 
p12
aVAES(cipher)
p13
aV IMPLY 
p14
aVgeneral(cipher)
p15
asbag1
(g2
g3
Ntp16
Rp17
(dp18
g7
(lp19
V8(bs)
p20
aV OR 
p21
aV16(bs)
p22
aV IMPLY 
p23
aVgeneral(bs)
p24
asbag1
(g2
g3
Ntp25
Rp26
(dp27
g7
(lp28
V8(IV)
p29
aV OR 
p30
aV16(IV)
p31
aV IMPLY 
p32
aVgeneral(IV)
p33
asbag1
(g2
g3
Ntp34
Rp35
(dp36
g7
(lp37
V16(key)
p38
aV OR 
p39
aV24(key)
p40
aV OR 
p41
aV32(key)
p42
aV IMPLY 
p43
aVgeneral(key)
p44
asbag1
(g2
g3
Ntp45
Rp46
(dp47
g7
(lp48
VHMAC-MD5(mac)
p49
aV OR 
p50
aVHMAC-SHA1(mac)
p51
aV OR 
p52
aVHMAC-SHA256(mac)
p53
aV IMPLY 
p54
aVgeneral(mac)
p55
asbag1
(g2
g3
Ntp56
Rp57
(dp58
g7
(lp59
V16(mac-len)
p60
aV OR 
p61
aV20(mac-len)
p62
aV OR 
p63
aV32(mac-len)
p64
aV IMPLY 
p65
aVgeneral(mac-len)
p66
asbag1
(g2
g3
Ntp67
Rp68
(dp69
g7
(lp70
V16(k-len)
p71
aV OR 
p72
aV20(k-len)
p73
aV OR 
p74
aV32(k-len)
p75
aV IMPLY 
p76
aVgeneral(k-len)
p77
asbag1
(g2
g3
Ntp78
Rp79
(dp80
g7
(lp81
V NEG general(mac)
p82
aV IMPLY 
p83
aV NEG general(mac-len)
p84
aV AND 
p85
aV NEG general(k-len)
p86
asbag1
(g2
g3
Ntp87
Rp88
(dp89
g7
(lp90
VHMAC-MD5(mac)
p91
aV IMPLY 
p92
aV16(mac-len)
p93
aV AND 
p94
aV16(k-len)
p95
asbag1
(g2
g3
Ntp96
Rp97
(dp98
g7
(lp99
VHMAC-SHA1(mac)
p100
aV IMPLY 
p101
aV20(mac-len)
p102
aV AND 
p103
aV20(k-len)
p104
asbag1
(g2
g3
Ntp105
Rp106
(dp107
g7
(lp108
VHMAC-SHA256(mac)
p109
aV IMPLY 
p110
aV32(mac-len)
p111
aV AND 
p112
aV32(k-len)
p113
asbag1
(g2
g3
Ntp114
Rp115
(dp116
g7
(lp117
VRC4(cipher)
p118
aV IMPLY 
p119
aV16(key)
p120
aV AND 
p121
aV NEG 8(IV)
p122
aV AND 
p123
aV NEG 16(IV)
p124
aV AND 
p125
aV NEG 8(bs)
p126
aV AND 
p127
aV NEG 16(bs)
p128
asbag1
(g2
g3
Ntp129
Rp130
(dp131
g7
(lp132
V3DES(cipher)
p133
aV IMPLY 
p134
aV24(key)
p135
aV AND 
p136
aV8(IV)
p137
aV AND 
p138
aV8(bs)
p139
asbag1
(g2
g3
Ntp140
Rp141
(dp142
g7
(lp143
VAES(cipher)
p144
aV IMPLY 
p145
aV16(IV)
p146
aV AND 
p147
aV16(bs)
p148
asbag1
(g2
g3
Ntp149
Rp150
(dp151
g7
(lp152
VRC4(cipher)
p153
aV IMPLY 
p154
aV NEG 3DES(cipher)
p155
aV AND 
p156
aV NEG AES(cipher)
p157
asbag1
(g2
g3
Ntp158
Rp159
(dp160
g7
(lp161
V3DES(cipher)
p162
aV IMPLY 
p163
aV NEG RC4(cipher)
p164
aV AND 
p165
aV NEG AES(cipher)
p166
asbag1
(g2
g3
Ntp167
Rp168
(dp169
g7
(lp170
VAES(cipher)
p171
aV IMPLY 
p172
aV NEG 3DES(cipher)
p173
aV AND 
p174
aV NEG RC4(cipher)
p175
asbag1
(g2
g3
Ntp176
Rp177
(dp178
g7
(lp179
V8(bs)
p180
aV IMPLY 
p181
aV NEG 16(bs)
p182
asbag1
(g2
g3
Ntp183
Rp184
(dp185
g7
(lp186
V16(bs)
p187
aV IMPLY 
p188
aV NEG 8(bs)
p189
asbag1
(g2
g3
Ntp190
Rp191
(dp192
g7
(lp193
V8(IV)
p194
aV IMPLY 
p195
aV NEG 16(IV)
p196
asbag1
(g2
g3
Ntp197
Rp198
(dp199
g7
(lp200
V16(IV)
p201
aV IMPLY 
p202
aV NEG 8(IV)
p203
asbag1
(g2
g3
Ntp204
Rp205
(dp206
g7
(lp207
V16(key)
p208
aV IMPLY 
p209
aV NEG 24(key)
p210
aV AND 
p211
aV NEG 32(key)
p212
aV AND 
p213
aV NEG key4(key)
p214
asbag1
(g2
g3
Ntp215
Rp216
(dp217
g7
(lp218
V24(key)
p219
aV IMPLY 
p220
aV NEG 16(key)
p221
aV AND 
p222
aV NEG 32(key)
p223
aV AND 
p224
aV NEG key4(key)
p225
asbag1
(g2
g3
Ntp226
Rp227
(dp228
g7
(lp229
V32(key)
p230
aV IMPLY 
p231
aV NEG 24(key)
p232
aV AND 
p233
aV NEG 16(key)
p234
aV AND 
p235
aV NEG key4(key)
p236
asbag1
(g2
g3
Ntp237
Rp238
(dp239
g7
(lp240
VHMAC-MD5(mac)
p241
aV IMPLY 
p242
aV NEG HMAC-SHA1(mac)
p243
aV AND 
p244
aV NEG HMAC-SHA256(mac)
p245
asbag1
(g2
g3
Ntp246
Rp247
(dp248
g7
(lp249
VHMAC-SHA1(mac)
p250
aV IMPLY 
p251
aV NEG HMAC-MD5(mac)
p252
aV AND 
p253
aV NEG HMAC-SHA256(mac)
p254
asbag1
(g2
g3
Ntp255
Rp256
(dp257
g7
(lp258
VHMAC-SHA256(mac)
p259
aV IMPLY 
p260
aV NEG HMAC-SHA1(mac)
p261
aV AND 
p262
aV NEG HMAC-MD5(mac)
p263
asbag1
(g2
g3
Ntp264
Rp265
(dp266
g7
(lp267
V16(mac-len)
p268
aV IMPLY 
p269
aV NEG 20(mac-len)
p270
aV AND 
p271
aV NEG 32(mac-len)
p272
asbag1
(g2
g3
Ntp273
Rp274
(dp275
g7
(lp276
V20(mac-len)
p277
aV IMPLY 
p278
aV NEG 16(mac-len)
p279
aV AND 
p280
aV NEG 32(mac-len)
p281
asbag1
(g2
g3
Ntp282
Rp283
(dp284
g7
(lp285
V32(mac-len)
p286
aV IMPLY 
p287
aV NEG 20(mac-len)
p288
aV AND 
p289
aV NEG 16(mac-len)
p290
asbag1
(g2
g3
Ntp291
Rp292
(dp293
g7
(lp294
V16(k-len)
p295
aV IMPLY 
p296
aV NEG 20(k-len)
p297
aV AND 
p298
aV NEG 32(k-len)
p299
asbag1
(g2
g3
Ntp300
Rp301
(dp302
g7
(lp303
V20(k-len)
p304
aV IMPLY 
p305
aV NEG 16(k-len)
p306
aV AND 
p307
aV NEG 32(k-len)
p308
asbag1
(g2
g3
Ntp309
Rp310
(dp311
g7
(lp312
V32(k-len)
p313
aV IMPLY 
p314
aV NEG 20(k-len)
p315
aV AND 
p316
aV NEG 16(k-len)
p317
asbag1
(g2
g3
Ntp318
Rp319
(dp320
g7
(lp321
VRSA(PK)
p322
aV IMPLY 
p323
aV NEG DH-DSS(PK)
p324
aV AND 
p325
aV NEG DH-RSA(PK)
p326
aV AND 
p327
aV NEG DHE-DSS(PK)
p328
aV AND 
p329
aV NEG DHE-RSA(PK)
p330
aV AND 
p331
aV NEG DH-anon(PK)
p332
asbag1
(g2
g3
Ntp333
Rp334
(dp335
g7
(lp336
VDH-DSS(PK)
p337
aV IMPLY 
p338
aV NEG RSA(PK)
p339
aV AND 
p340
aV NEG DH-RSA(PK)
p341
aV AND 
p342
aV NEG DHE-DSS(PK)
p343
aV AND 
p344
aV NEG DHE-RSA(PK)
p345
aV AND 
p346
aV NEG DH-anon(PK)
p347
asbag1
(g2
g3
Ntp348
Rp349
(dp350
g7
(lp351
VDH-RSA(PK)
p352
aV IMPLY 
p353
aV NEG RSA(PK)
p354
aV AND 
p355
aV NEG DH-DSS(PK)
p356
aV AND 
p357
aV NEG DHE-DSS(PK)
p358
aV AND 
p359
aV NEG DHE-RSA(PK)
p360
aV AND 
p361
aV NEG DH-anon(PK)
p362
asbag1
(g2
g3
Ntp363
Rp364
(dp365
g7
(lp366
VDHE-DSS(PK)
p367
aV IMPLY 
p368
aV NEG RSA(PK)
p369
aV AND 
p370
aV NEG DH-DSS(PK)
p371
aV AND 
p372
aV NEG DH-RSA(PK)
p373
aV AND 
p374
aV NEG DHE-RSA(PK)
p375
aV AND 
p376
aV NEG DH-anon(PK)
p377
asbag1
(g2
g3
Ntp378
Rp379
(dp380
g7
(lp381
VDHE-RSA(PK)
p382
aV IMPLY 
p383
aV NEG RSA(PK)
p384
aV AND 
p385
aV NEG DH-DSS(PK)
p386
aV AND 
p387
aV NEG DH-RSA(PK)
p388
aV AND 
p389
aV NEG DHE-DSS(PK)
p390
aV AND 
p391
aV NEG DH-anon(PK)
p392
asbag1
(g2
g3
Ntp393
Rp394
(dp395
g7
(lp396
VDH-anon(PK)
p397
aV IMPLY 
p398
aV NEG RSA(PK)
p399
aV AND 
p400
aV NEG DH-DSS(PK)
p401
aV AND 
p402
aV NEG DH-RSA(PK)
p403
aV AND 
p404
aV NEG DHE-DSS(PK)
p405
aV AND 
p406
aV NEG DHE-RSA(PK)
p407
asbag1
(g2
g3
Ntp408
Rp409
(dp410
g7
(lp411
VRSA(PK)
p412
aV OR 
p413
aVDH-DSS(PK)
p414
aV OR 
p415
aVDH-RSA(PK)
p416
aV OR 
p417
aVDHE-DSS(PK)
p418
aV OR 
p419
aVDHE-RSA(PK)
p420
aV OR 
p421
aVDH-anon(PK)
p422
aV IMPLY 
p423
aVgeneral(PK)
p424
asbag1
(g2
g3
Ntp425
Rp426
(dp427
g7
(lp428
Vkey4(key)
p429
aV IMPLY 
p430
aV NEG 24(key)
p431
aV AND 
p432
aV NEG 32(key)
p433
aV AND 
p434
aV NEG 16(key)
p435
asba.