(lp0
ccopy_reg
_reconstructor
p1
(cStructs
SecurityAttribute
p2
c__builtin__
object
p3
Ntp4
Rp5
(dp6
S'name'
p7
Vconfidentiality
p8
sS'description'
p9
V
p10
sbag1
(g2
g3
Ntp11
Rp12
(dp13
g7
Vintegrity
p14
sg9
g10
sbag1
(g2
g3
Ntp15
Rp16
(dp17
g7
Vavailability
p18
sg9
g10
sbag1
(g2
g3
Ntp19
Rp20
(dp21
g7
Vauthorisation
p22
sg9
g10
sba.